target datalayout = "e-m:e-p270:32:32-p271:32:32-p272:64:64-i64:64-i128:128-f80:128-n8:16:32:64-S128"
target triple = "x86_64-pc-linux-gnu"

%struct._lv_arc_t = type { %struct._lv_obj_t, i32, float, float, float, float, i32, i32, i32, i8, i32, i32, float, i16 }
%struct._lv_obj_t = type { ptr, ptr, ptr, ptr, ptr, %struct.lv_area_t, i32, i16, i16 }
%struct.lv_area_t = type { i32, i32, i32, i32 }

; Function Attrs: nounwind uwtable
define float @lv_arc_get_bg_angle_end(ptr noundef %0) #0 {
  %2 = alloca ptr, align 8
  store ptr %0, ptr %2, align 8, !tbaa !8
  br label %3

3:                                                ; preds = %1
  %4 = load ptr, ptr %2, align 8, !tbaa !8
  %5 = icmp ne ptr %4, null
  br i1 %5, label %10, label %6

6:                                                ; preds = %3
  br label %7

7:                                                ; preds = %6
  br label %8

8:                                                ; preds = %7
  br label %9

9:                                                ; preds = %8, %9
  br label %9

10:                                               ; preds = %3
  br label %11

11:                                               ; preds = %10
  %12 = load ptr, ptr %2, align 8, !tbaa !8
  %13 = getelementptr inbounds nuw %struct._lv_arc_t, ptr %12, i32 0, i32 5
  %14 = load float, ptr %13, align 8, !tbaa !22
  ret float %14
}